target datalayout = "e-m:e-p270:32:32-p271:32:32-p272:64:64-i64:64-i128:128-f80:128-n8:16:32:64-S128"
target triple = "x86_64-pc-linux-gnu"

%"struct.Eigen::internal::Colamd::ColStructure" = type { i32, i32, %union.anon.425, %union.anon.426, %union.anon.427, %union.anon.428 }
%union.anon.425 = type { i32 }
%union.anon.426 = type { i32 }
%union.anon.427 = type { i32 }
%union.anon.428 = type { i32 }

; Function Attrs: inlinehint mustprogress nounwind ssp uwtable
define linkonce_odr noundef zeroext i1 @_ZNK5Eigen8internal6Colamd12ColStructureIiE17is_dead_principalEv(ptr noundef nonnull align 4 dereferenceable(24) %0) #8 comdat align 2 {
  %2 = alloca ptr, align 8
  store ptr %0, ptr %2, align 8, !tbaa !1028
  %3 = load ptr, ptr %2, align 8
  %4 = getelementptr inbounds nuw %"struct.Eigen::internal::Colamd::ColStructure", ptr %3, i32 0, i32 0
  %5 = load i32, ptr %4, align 4, !tbaa !1061
  %6 = icmp eq i32 %5, -1
  ret i1 %6
}

; Function Attrs: inlinehint mustprogress ssp uwtable
define internal void @_ZN5Eigen8internal6ColamdL14order_childrenIiEEvT_PNS1_12ColStructureIS3_EEPS3_(i32 noundef %0, ptr noundef %1, ptr noundef %2) #4 {
  %4 = alloca i32, align 4
  %5 = alloca ptr, align 8
  %6 = alloca ptr, align 8
  %7 = alloca i32, align 4
  %8 = alloca i32, align 4
  %9 = alloca i32, align 4
  %10 = alloca i32, align 4
  store i32 %0, ptr %4, align 4, !tbaa !33
  store ptr %1, ptr %5, align 8, !tbaa !1028
  store ptr %2, ptr %6, align 8, !tbaa !70
  call void @llvm.lifetime.start.p0(i64 4, ptr %7) #10
  call void @llvm.lifetime.start.p0(i64 4, ptr %8) #10
  call void @llvm.lifetime.start.p0(i64 4, ptr %9) #10
  call void @llvm.lifetime.start.p0(i64 4, ptr %10) #10
  store i32 0, ptr %7, align 4, !tbaa !33
  br label %11

11:                                               ; preds = %89, %3
  %12 = load i32, ptr %7, align 4, !tbaa !33
  %13 = load i32, ptr %4, align 4, !tbaa !33
  %14 = icmp slt i32 %12, %13
  br i1 %14, label %15, label %92

15:                                               ; preds = %11
  %16 = load ptr, ptr %5, align 8, !tbaa !1028
  %17 = load i32, ptr %7, align 4, !tbaa !33
  %18 = sext i32 %17 to i64
  %19 = getelementptr inbounds %"struct.Eigen::internal::Colamd::ColStructure", ptr %16, i64 %18
  %20 = call noundef zeroext i1 @_ZNK5Eigen8internal6Colamd12ColStructureIiE17is_dead_principalEv(ptr noundef nonnull align 4 dereferenceable(24) %19)
  br i1 %20, label %88, label %21

21:                                               ; preds = %15
  %22 = load ptr, ptr %5, align 8, !tbaa !1028
  %23 = load i32, ptr %7, align 4, !tbaa !33
  %24 = sext i32 %23 to i64
  %25 = getelementptr inbounds %"struct.Eigen::internal::Colamd::ColStructure", ptr %22, i64 %24
  %26 = getelementptr inbounds nuw %"struct.Eigen::internal::Colamd::ColStructure", ptr %25, i32 0, i32 3
  %27 = load i32, ptr %26, align 4, !tbaa !327
  %28 = icmp eq i32 %27, -1
  br i1 %28, label %29, label %88

29:                                               ; preds = %21
  %30 = load i32, ptr %7, align 4, !tbaa !33
  store i32 %30, ptr %9, align 4, !tbaa !33
  br label %31

31:                                               ; preds = %38, %29
  %32 = load ptr, ptr %5, align 8, !tbaa !1028
  %33 = load i32, ptr %9, align 4, !tbaa !33
  %34 = sext i32 %33 to i64
  %35 = getelementptr inbounds %"struct.Eigen::internal::Colamd::ColStructure", ptr %32, i64 %34
  %36 = getelementptr inbounds nuw %"struct.Eigen::internal::Colamd::ColStructure", ptr %35, i32 0, i32 2
  %37 = load i32, ptr %36, align 4, !tbaa !327
  store i32 %37, ptr %9, align 4, !tbaa !33
  br label %38

38:                                               ; preds = %31
  %39 = load ptr, ptr %5, align 8, !tbaa !1028
  %40 = load i32, ptr %9, align 4, !tbaa !33
  %41 = sext i32 %40 to i64
  %42 = getelementptr inbounds %"struct.Eigen::internal::Colamd::ColStructure", ptr %39, i64 %41
  %43 = call noundef zeroext i1 @_ZNK5Eigen8internal6Colamd12ColStructureIiE17is_dead_principalEv(ptr noundef nonnull align 4 dereferenceable(24) %42)
  %44 = xor i1 %43, true
  br i1 %44, label %31, label %45, !llvm.loop !1098

45:                                               ; preds = %38
  %46 = load i32, ptr %7, align 4, !tbaa !33
  store i32 %46, ptr %8, align 4, !tbaa !33
  %47 = load ptr, ptr %5, align 8, !tbaa !1028
  %48 = load i32, ptr %9, align 4, !tbaa !33
  %49 = sext i32 %48 to i64
  %50 = getelementptr inbounds %"struct.Eigen::internal::Colamd::ColStructure", ptr %47, i64 %49
  %51 = getelementptr inbounds nuw %"struct.Eigen::internal::Colamd::ColStructure", ptr %50, i32 0, i32 3
  %52 = load i32, ptr %51, align 4, !tbaa !327
  store i32 %52, ptr %10, align 4, !tbaa !33
  br label %53

53:                                               ; preds = %73, %45
  %54 = load i32, ptr %10, align 4, !tbaa !33
  %55 = add nsw i32 %54, 1
  store i32 %55, ptr %10, align 4, !tbaa !33
  %56 = load ptr, ptr %5, align 8, !tbaa !1028
  %57 = load i32, ptr %8, align 4, !tbaa !33
  %58 = sext i32 %57 to i64
  %59 = getelementptr inbounds %"struct.Eigen::internal::Colamd::ColStructure", ptr %56, i64 %58
  %60 = getelementptr inbounds nuw %"struct.Eigen::internal::Colamd::ColStructure", ptr %59, i32 0, i32 3
  store i32 %54, ptr %60, align 4, !tbaa !327
  %61 = load i32, ptr %9, align 4, !tbaa !33
  %62 = load ptr, ptr %5, align 8, !tbaa !1028
  %63 = load i32, ptr %8, align 4, !tbaa !33
  %64 = sext i32 %63 to i64
  %65 = getelementptr inbounds %"struct.Eigen::internal::Colamd::ColStructure", ptr %62, i64 %64
  %66 = getelementptr inbounds nuw %"struct.Eigen::internal::Colamd::ColStructure", ptr %65, i32 0, i32 2
  store i32 %61, ptr %66, align 4, !tbaa !327
  %67 = load ptr, ptr %5, align 8, !tbaa !1028
  %68 = load i32, ptr %8, align 4, !tbaa !33
  %69 = sext i32 %68 to i64
  %70 = getelementptr inbounds %"struct.Eigen::internal::Colamd::ColStructure", ptr %67, i64 %69
  %71 = getelementptr inbounds nuw %"struct.Eigen::internal::Colamd::ColStructure", ptr %70, i32 0, i32 2
  %72 = load i32, ptr %71, align 4, !tbaa !327
  store i32 %72, ptr %8, align 4, !tbaa !33
  br label %73

73:                                               ; preds = %53
  %74 = load ptr, ptr %5, align 8, !tbaa !1028
  %75 = load i32, ptr %8, align 4, !tbaa !33
  %76 = sext i32 %75 to i64
  %77 = getelementptr inbounds %"struct.Eigen::internal::Colamd::ColStructure", ptr %74, i64 %76
  %78 = getelementptr inbounds nuw %"struct.Eigen::internal::Colamd::ColStructure", ptr %77, i32 0, i32 3
  %79 = load i32, ptr %78, align 4, !tbaa !327
  %80 = icmp eq i32 %79, -1
  br i1 %80, label %53, label %81, !llvm.loop !1099

81:                                               ; preds = %73
  %82 = load i32, ptr %10, align 4, !tbaa !33
  %83 = load ptr, ptr %5, align 8, !tbaa !1028
  %84 = load i32, ptr %9, align 4, !tbaa !33
  %85 = sext i32 %84 to i64
  %86 = getelementptr inbounds %"struct.Eigen::internal::Colamd::ColStructure", ptr %83, i64 %85
  %87 = getelementptr inbounds nuw %"struct.Eigen::internal::Colamd::ColStructure", ptr %86, i32 0, i32 3
  store i32 %82, ptr %87, align 4, !tbaa !327
  br label %88

88:                                               ; preds = %81, %21, %15
  br label %89

89:                                               ; preds = %88
  %90 = load i32, ptr %7, align 4, !tbaa !33
  %91 = add nsw i32 %90, 1
  store i32 %91, ptr %7, align 4, !tbaa !33
  br label %11, !llvm.loop !1100

92:                                               ; preds = %11
  store i32 0, ptr %8, align 4, !tbaa !33
  br label %93

93:                                               ; preds = %108, %92
  %94 = load i32, ptr %8, align 4, !tbaa !33
  %95 = load i32, ptr %4, align 4, !tbaa !33
  %96 = icmp slt i32 %94, %95
  br i1 %96, label %97, label %111

97:                                               ; preds = %93
  %98 = load i32, ptr %8, align 4, !tbaa !33
  %99 = load ptr, ptr %6, align 8, !tbaa !70
  %100 = load ptr, ptr %5, align 8, !tbaa !1028
  %101 = load i32, ptr %8, align 4, !tbaa !33
  %102 = sext i32 %101 to i64
  %103 = getelementptr inbounds %"struct.Eigen::internal::Colamd::ColStructure", ptr %100, i64 %102
  %104 = getelementptr inbounds nuw %"struct.Eigen::internal::Colamd::ColStructure", ptr %103, i32 0, i32 3
  %105 = load i32, ptr %104, align 4, !tbaa !327
  %106 = sext i32 %105 to i64
  %107 = getelementptr inbounds i32, ptr %99, i64 %106
  store i32 %98, ptr %107, align 4, !tbaa !33
  br label %108

108:                                              ; preds = %97
  %109 = load i32, ptr %8, align 4, !tbaa !33
  %110 = add nsw i32 %109, 1
  store i32 %110, ptr %8, align 4, !tbaa !33
  br label %93, !llvm.loop !1101

111:                                              ; preds = %93
  call void @llvm.lifetime.end.p0(i64 4, ptr %10) #10
  call void @llvm.lifetime.end.p0(i64 4, ptr %9) #10
  call void @llvm.lifetime.end.p0(i64 4, ptr %8) #10
  call void @llvm.lifetime.end.p0(i64 4, ptr %7) #10
  ret void
}